; Function Attrs: mustprogress nounwind uwtable
define internal fastcc void @_ZN12_GLOBAL__N_116FunctionCompiler17compileVectorFNegEN8WasmEdge4LLVM4TypeE(ptr noundef nonnull readonly align 8 captures(none) dereferenceable(200) %0, i64 %.0.val) unnamed_addr #0 align 2 {
  %2 = getelementptr inbounds nuw i8, ptr %0, i64 192
  %3 = getelementptr inbounds nuw i8, ptr %0, i64 48
  %4 = load ptr, ptr %3, align 8
  %5 = getelementptr inbounds i8, ptr %4, i64 -8
  %6 = load i64, ptr %5, align 8
  %7 = inttoptr i64 %6 to ptr
  %8 = inttoptr i64 %.0.val to ptr
  %9 = load ptr, ptr %2, align 8, !noalias !5591
  %10 = tail call ptr @LLVMBuildBitCast(ptr noundef %9, ptr noundef %7, ptr noundef %8, ptr noundef nonnull @.str.11) #16, !noalias !5591
  %.val.val.i = load ptr, ptr %2, align 8, !noalias !5594
  %11 = tail call ptr @LLVMBuildFNeg(ptr noundef %.val.val.i, ptr noundef %10, ptr noundef nonnull @.str.11) #16, !noalias !5597
  %12 = load ptr, ptr %0, align 8
  %13 = getelementptr inbounds nuw i8, ptr %12, i64 176
  %14 = load i64, ptr %13, align 8
  %15 = inttoptr i64 %14 to ptr
  %16 = load ptr, ptr %2, align 8, !noalias !5602
  %17 = tail call ptr @LLVMBuildBitCast(ptr noundef %16, ptr noundef %11, ptr noundef %15, ptr noundef nonnull @.str.11) #16, !noalias !5602
  %18 = load ptr, ptr %3, align 8
  %19 = getelementptr inbounds i8, ptr %18, i64 -8
  store ptr %17, ptr %19, align 8
  ret void
}